TN:
SF:/teaclave/mesatee_core/src/config/mod.rs
FN:39,_ZN12mesatee_core6config10TargetDesc3new17h733779fb50f4c88dE
FN:56,_ZN12mesatee_core6config12OutboundDesc7default17h4c775685de981611E
FN:60,_ZN12mesatee_core6config12OutboundDesc3new17h7f3c6b1c891c2e82E
FN:67,_ZN12mesatee_core6config27load_presigned_enclave_info17hacc7099e933b397eE
FN:90,_ZN12mesatee_core6config29is_runtime_config_initialized17h80c57ab9841680e3E
FN:94,_ZN12mesatee_core6config14runtime_config17h136650f8ea996290E
FN:100,_ZN12mesatee_core6config24get_trusted_enclave_attr17h0b6bb634e3aff229E
FN:103,_ZN12mesatee_core6config24get_trusted_enclave_attr28_$u7b$$u7b$closure$u7d$$u7d$17h68390533560c45fbE
FNDA:0,_ZN12mesatee_core6config10TargetDesc3new17h733779fb50f4c88dE
FNDA:0,_ZN12mesatee_core6config12OutboundDesc3new17h7f3c6b1c891c2e82E
FNDA:0,_ZN12mesatee_core6config12OutboundDesc7default17h4c775685de981611E
FNDA:0,_ZN12mesatee_core6config29is_runtime_config_initialized17h80c57ab9841680e3E
FNDA:0,_ZN12mesatee_core6config24get_trusted_enclave_attr28_$u7b$$u7b$closure$u7d$$u7d$17h68390533560c45fbE
FNDA:0,_ZN12mesatee_core6config14runtime_config17h136650f8ea996290E
FNDA:0,_ZN12mesatee_core6config27load_presigned_enclave_info17hacc7099e933b397eE
FNDA:0,_ZN12mesatee_core6config24get_trusted_enclave_attr17h0b6bb634e3aff229E
FNF:8
FNH:0
DA:39,0
DA:40,0
DA:41,0
DA:56,0
DA:57,0
DA:58,0
DA:60,0
DA:61,0
DA:62,0
DA:64,0
DA:67,0
DA:68,0
DA:69,0
DA:72,0
DA:73,0
DA:74,0
DA:75,0
DA:77,0
DA:80,0
DA:81,0
DA:90,0
DA:91,0
DA:92,0
DA:94,0
DA:95,0
DA:98,0
DA:100,0
DA:101,0
DA:103,0
DA:105,0
DA:106,0
LF:31
LH:0
end_of_record
TN:
SF:/teaclave/mesatee_core/src/error.rs
FN:37,_ZN196_$LT$mesatee_core..error.._IMPL_DESERIALIZE_FOR_Error..$LT$impl$u20$serde..de..Deserialize$u20$for$u20$mesatee_core..error..Error$GT$..deserialize..__FieldVisitor$u20$as$u20$serde..de..Visitor$GT$9expecting17hf064f8a1b5c69bfbE
FN:37,_ZN191_$LT$mesatee_core..error.._IMPL_DESERIALIZE_FOR_Error..$LT$impl$u20$serde..de..Deserialize$u20$for$u20$mesatee_core..error..Error$GT$..deserialize..__Visitor$u20$as$u20$serde..de..Visitor$GT$9expecting17hbfe6129115ed01c3E
FN:43,_ZN63_$LT$mesatee_core..error..Error$u20$as$u20$core..fmt..Debug$GT$3fmt17hdc27a769de4ece72E
FN:48,_ZN194_$LT$mesatee_core..error.._IMPL_DESERIALIZE_FOR_Repr..$LT$impl$u20$serde..de..Deserialize$u20$for$u20$mesatee_core..error..Repr$GT$..deserialize..__FieldVisitor$u20$as$u20$serde..de..Visitor$GT$9expecting17h2203bfa9e7774510E
FN:48,_ZN189_$LT$mesatee_core..error.._IMPL_DESERIALIZE_FOR_Repr..$LT$impl$u20$serde..de..Deserialize$u20$for$u20$mesatee_core..error..Repr$GT$..deserialize..__Visitor$u20$as$u20$serde..de..Visitor$GT$9expecting17he417c97a25ccf044E
FN:55,_ZN64_$LT$mesatee_core..error..Custom$u20$as$u20$core..fmt..Debug$GT$3fmt17h16d6468fcfde2fc3E
FN:63,_ZN204_$LT$mesatee_core..error.._IMPL_DESERIALIZE_FOR_ErrorKind..$LT$impl$u20$serde..de..Deserialize$u20$for$u20$mesatee_core..error..ErrorKind$GT$..deserialize..__FieldVisitor$u20$as$u20$serde..de..Visitor$GT$9expecting17h871e7e94f33cac44E
FN:63,_ZN199_$LT$mesatee_core..error.._IMPL_DESERIALIZE_FOR_ErrorKind..$LT$impl$u20$serde..de..Deserialize$u20$for$u20$mesatee_core..error..ErrorKind$GT$..deserialize..__Visitor$u20$as$u20$serde..de..Visitor$GT$9expecting17h47aecb1b277ecf42E
FN:66,_ZN67_$LT$mesatee_core..error..ErrorKind$u20$as$u20$core..fmt..Debug$GT$3fmt17h2f8e0c28bb70ffb7E
FN:149,_ZN12mesatee_core5error13EnclaveStatus7default17h205a0067d9de1d28E
FN:153,_ZN12mesatee_core5error13EnclaveStatus6is_err17h1640b0dd51d474a5E
FN:160,_ZN12mesatee_core5error13EnclaveStatus17is_err_ffi_outbuf17h76cfccf839454099E
FN:179,_ZN12mesatee_core5error9ErrorKind6as_str17h96b2b56950dc8f73E
FN:225,_ZN104_$LT$mesatee_core..error..Error$u20$as$u20$core..convert..From$LT$mesatee_core..error..ErrorKind$GT$$GT$4from17h44e77c96ced333e1E
FN:234,_ZN77_$LT$mesatee_core..error..Error$u20$as$u20$core..convert..From$LT$u32$GT$$GT$4from17h9dbda91eb9f6fd1fE
FN:326,_ZN12mesatee_core5error5Error3new17h0a52f51aa3b4113aE
FN:326,_ZN12mesatee_core5error5Error3new17h4e1e87136bbb700aE
FN:333,_ZN12mesatee_core5error5Error4_new17h528b2f0134398c97E
FN:339,_ZN12mesatee_core5error5Error7get_ref17hda799a39067a321fE
FN:346,_ZN12mesatee_core5error5Error7get_mut17h01d3a38a1e5f5d6bE
FN:353,_ZN12mesatee_core5error5Error10into_inner17h659f409d305daa49E
FN:360,_ZN12mesatee_core5error5Error17into_simple_error17h61a0371ab07d13f0E
FN:367,_ZN12mesatee_core5error5Error4kind17h0005216c790efd5dE
FN:374,_ZN12mesatee_core5error5Error7unknown17hd16cbf57b0019123E
FN:380,_ZN62_$LT$mesatee_core..error..Repr$u20$as$u20$core..fmt..Debug$GT$3fmt17hbc03377f9f96cc8bE
FN:389,_ZN65_$LT$mesatee_core..error..Error$u20$as$u20$core..fmt..Display$GT$3fmt17h4cd7e15a3a0ed8b8E
FN:398,_ZN64_$LT$mesatee_core..error..Error$u20$as$u20$std..error..Error$GT$6source17h0780c89b52bcf137E
FN:429,_ZN108_$LT$mesatee_core..error..Error$u20$as$u20$core..convert..From$LT$mesatee_core..error..EnclaveStatus$GT$$GT$4from17h3cae739c7b7bf10eE
FN:458,_ZN104_$LT$mesatee_core..error..Error$u20$as$u20$core..convert..From$LT$sgx_types..error..sgx_status_t$GT$$GT$4from17h88b5b21d72abbf3bE
FN:473,_ZN67_$LT$mesatee_core..error..SgxStatus$u20$as$u20$core..fmt..Debug$GT$3fmt17h7728d6cb6b95c139E
FN:479,_ZN69_$LT$mesatee_core..error..SgxStatus$u20$as$u20$core..fmt..Display$GT$3fmt17h0fc20f8bf7b6eb39E
FN:488,_ZN108_$LT$mesatee_core..error..SgxStatus$u20$as$u20$core..convert..From$LT$sgx_types..error..sgx_status_t$GT$$GT$4from17h902dbe42dadd2700E
FN:494,_ZN68_$LT$mesatee_core..error..SgxStatus$u20$as$u20$std..error..Error$GT$11description17h5f3cb67778d0ea39E
FN:507,_ZN12mesatee_core5error5tests16test_debug_error17h4acf1f502fe24ec8E
FN:524,_ZN12mesatee_core5error5tests16test_downcasting17hbcac661518ed36d7E
FN:525,_ZN92_$LT$mesatee_core..error..tests..test_downcasting..TestError$u20$as$u20$core..fmt..Debug$GT$3fmt17heb90e66317e8a8a2E
FN:529,_ZN94_$LT$mesatee_core..error..tests..test_downcasting..TestError$u20$as$u20$core..fmt..Display$GT$3fmt17he9ea11f6da9af6beE
FN:535,_ZN93_$LT$mesatee_core..error..tests..test_downcasting..TestError$u20$as$u20$std..error..Error$GT$11description17hc2bf38553e322355E
FNDA:0,_ZN12mesatee_core5error5Error17into_simple_error17h61a0371ab07d13f0E
FNDA:1,_ZN12mesatee_core5error5Error3new17h0a52f51aa3b4113aE
FNDA:0,_ZN93_$LT$mesatee_core..error..tests..test_downcasting..TestError$u20$as$u20$std..error..Error$GT$11description17hc2bf38553e322355E
FNDA:2,_ZN63_$LT$mesatee_core..error..Error$u20$as$u20$core..fmt..Debug$GT$3fmt17hdc27a769de4ece72E
FNDA:0,_ZN194_$LT$mesatee_core..error.._IMPL_DESERIALIZE_FOR_Repr..$LT$impl$u20$serde..de..Deserialize$u20$for$u20$mesatee_core..error..Repr$GT$..deserialize..__FieldVisitor$u20$as$u20$serde..de..Visitor$GT$9expecting17h2203bfa9e7774510E
FNDA:0,_ZN196_$LT$mesatee_core..error.._IMPL_DESERIALIZE_FOR_Error..$LT$impl$u20$serde..de..Deserialize$u20$for$u20$mesatee_core..error..Error$GT$..deserialize..__FieldVisitor$u20$as$u20$serde..de..Visitor$GT$9expecting17hf064f8a1b5c69bfbE
FNDA:2,_ZN77_$LT$mesatee_core..error..Error$u20$as$u20$core..convert..From$LT$u32$GT$$GT$4from17h9dbda91eb9f6fd1fE
FNDA:2,_ZN12mesatee_core5error13EnclaveStatus7default17h205a0067d9de1d28E
FNDA:0,_ZN204_$LT$mesatee_core..error.._IMPL_DESERIALIZE_FOR_ErrorKind..$LT$impl$u20$serde..de..Deserialize$u20$for$u20$mesatee_core..error..ErrorKind$GT$..deserialize..__FieldVisitor$u20$as$u20$serde..de..Visitor$GT$9expecting17h871e7e94f33cac44E
FNDA:0,_ZN92_$LT$mesatee_core..error..tests..test_downcasting..TestError$u20$as$u20$core..fmt..Debug$GT$3fmt17heb90e66317e8a8a2E
FNDA:2,_ZN67_$LT$mesatee_core..error..ErrorKind$u20$as$u20$core..fmt..Debug$GT$3fmt17h2f8e0c28bb70ffb7E
FNDA:1,_ZN12mesatee_core5error5Error10into_inner17h659f409d305daa49E
FNDA:0,_ZN199_$LT$mesatee_core..error.._IMPL_DESERIALIZE_FOR_ErrorKind..$LT$impl$u20$serde..de..Deserialize$u20$for$u20$mesatee_core..error..ErrorKind$GT$..deserialize..__Visitor$u20$as$u20$serde..de..Visitor$GT$9expecting17h47aecb1b277ecf42E
FNDA:0,_ZN191_$LT$mesatee_core..error.._IMPL_DESERIALIZE_FOR_Error..$LT$impl$u20$serde..de..Deserialize$u20$for$u20$mesatee_core..error..Error$GT$..deserialize..__Visitor$u20$as$u20$serde..de..Visitor$GT$9expecting17hbfe6129115ed01c3E
FNDA:2,_ZN12mesatee_core5error5Error4kind17h0005216c790efd5dE
FNDA:0,_ZN108_$LT$mesatee_core..error..Error$u20$as$u20$core..convert..From$LT$mesatee_core..error..EnclaveStatus$GT$$GT$4from17h3cae739c7b7bf10eE
FNDA:0,_ZN64_$LT$mesatee_core..error..Error$u20$as$u20$std..error..Error$GT$6source17h0780c89b52bcf137E
FNDA:0,_ZN68_$LT$mesatee_core..error..SgxStatus$u20$as$u20$std..error..Error$GT$11description17h5f3cb67778d0ea39E
FNDA:0,_ZN12mesatee_core5error5Error3new17h4e1e87136bbb700aE
FNDA:0,_ZN104_$LT$mesatee_core..error..Error$u20$as$u20$core..convert..From$LT$mesatee_core..error..ErrorKind$GT$$GT$4from17h44e77c96ced333e1E
FNDA:1,_ZN64_$LT$mesatee_core..error..Custom$u20$as$u20$core..fmt..Debug$GT$3fmt17h16d6468fcfde2fc3E
FNDA:1,_ZN12mesatee_core5error5Error4_new17h528b2f0134398c97E
FNDA:2,_ZN12mesatee_core5error13EnclaveStatus17is_err_ffi_outbuf17h76cfccf839454099E
FNDA:0,_ZN189_$LT$mesatee_core..error.._IMPL_DESERIALIZE_FOR_Repr..$LT$impl$u20$serde..de..Deserialize$u20$for$u20$mesatee_core..error..Repr$GT$..deserialize..__Visitor$u20$as$u20$serde..de..Visitor$GT$9expecting17he417c97a25ccf044E
FNDA:2,_ZN12mesatee_core5error13EnclaveStatus6is_err17h1640b0dd51d474a5E
FNDA:0,_ZN104_$LT$mesatee_core..error..Error$u20$as$u20$core..convert..From$LT$sgx_types..error..sgx_status_t$GT$$GT$4from17h88b5b21d72abbf3bE
FNDA:1,_ZN12mesatee_core5error5tests16test_downcasting17hbcac661518ed36d7E
FNDA:0,_ZN108_$LT$mesatee_core..error..SgxStatus$u20$as$u20$core..convert..From$LT$sgx_types..error..sgx_status_t$GT$$GT$4from17h902dbe42dadd2700E
FNDA:2,_ZN12mesatee_core5error5Error7get_ref17hda799a39067a321fE
FNDA:0,_ZN65_$LT$mesatee_core..error..Error$u20$as$u20$core..fmt..Display$GT$3fmt17h4cd7e15a3a0ed8b8E
FNDA:0,_ZN12mesatee_core5error5Error7unknown17hd16cbf57b0019123E
FNDA:0,_ZN69_$LT$mesatee_core..error..SgxStatus$u20$as$u20$core..fmt..Display$GT$3fmt17h0fc20f8bf7b6eb39E
FNDA:1,_ZN12mesatee_core5error5tests16test_debug_error17h4acf1f502fe24ec8E
FNDA:1,_ZN12mesatee_core5error5Error7get_mut17h01d3a38a1e5f5d6bE
FNDA:0,_ZN67_$LT$mesatee_core..error..SgxStatus$u20$as$u20$core..fmt..Debug$GT$3fmt17h7728d6cb6b95c139E
FNDA:0,_ZN12mesatee_core5error9ErrorKind6as_str17h96b2b56950dc8f73E
FNDA:1,_ZN94_$LT$mesatee_core..error..tests..test_downcasting..TestError$u20$as$u20$core..fmt..Display$GT$3fmt17he9ea11f6da9af6beE
FNDA:2,_ZN62_$LT$mesatee_core..error..Repr$u20$as$u20$core..fmt..Debug$GT$3fmt17hbc03377f9f96cc8bE
FNF:38
FNH:17
DA:37,0
DA:43,2
DA:44,2
DA:45,2
DA:48,0
DA:55,6
DA:57,2
DA:58,2
DA:63,0
DA:66,12
DA:149,2
DA:150,4
DA:151,2
DA:153,2
DA:154,2
DA:155,4
DA:156,0
DA:158,2
DA:160,2
DA:161,6
DA:162,2
DA:163,2
DA:165,4
DA:179,0
DA:180,0
DA:181,0
DA:182,0
DA:183,0
DA:184,0
DA:185,0
DA:186,0
DA:187,0
DA:188,0
DA:189,0
DA:190,0
DA:191,0
DA:192,0
DA:193,0
DA:194,0
DA:195,0
DA:196,0
DA:197,0
DA:198,0
DA:199,0
DA:200,0
DA:201,0
DA:202,0
DA:203,0
DA:204,0
DA:205,0
DA:206,0
DA:207,0
DA:208,0
DA:209,0
DA:210,0
DA:212,0
DA:214,0
DA:215,0
DA:216,0
DA:217,0
DA:218,0
DA:220,0
DA:225,0
DA:226,0
DA:227,0
DA:229,0
DA:234,2
DA:235,2
DA:236,2
DA:237,0
DA:238,0
DA:239,0
DA:240,0
DA:241,0
DA:242,0
DA:243,0
DA:244,0
DA:245,0
DA:246,0
DA:247,0
DA:248,0
DA:249,0
DA:250,0
DA:251,0
DA:252,0
DA:253,0
DA:254,0
DA:255,0
DA:256,0
DA:257,0
DA:258,0
DA:259,0
DA:260,0
DA:261,0
DA:262,0
DA:263,0
DA:264,0
DA:265,0
DA:266,0
DA:267,0
DA:268,0
DA:269,0
DA:270,0
DA:271,2
DA:274,2
DA:275,2
DA:277,2
DA:326,1
DA:330,2
DA:331,1
DA:333,1
DA:334,1
DA:335,3
DA:337,1
DA:339,2
DA:340,2
DA:341,2
DA:342,2
DA:344,2
DA:346,1
DA:347,1
DA:348,1
DA:349,1
DA:351,1
DA:353,1
DA:354,1
DA:355,2
DA:356,1
DA:358,1
DA:360,0
DA:361,0
DA:362,0
DA:363,0
DA:365,0
DA:367,2
DA:368,2
DA:369,2
DA:370,2
DA:372,2
DA:374,0
DA:375,0
DA:376,0
DA:380,2
DA:381,2
DA:382,3
DA:383,3
DA:385,2
DA:389,0
DA:390,0
DA:391,0
DA:392,0
DA:394,0
DA:398,0
DA:399,0
DA:400,0
DA:401,0
DA:403,0
DA:429,0
DA:430,0
DA:431,0
DA:458,0
DA:459,0
DA:460,0
DA:473,0
DA:475,0
DA:479,0
DA:481,0
DA:483,0
DA:488,0
DA:489,0
DA:490,0
DA:494,0
DA:496,0
DA:498,0
DA:507,1
DA:508,1
DA:509,3
DA:510,2
DA:511,3
DA:512,1
DA:516,1
DA:521,6
DA:522,3
DA:524,1
DA:525,0
DA:529,1
DA:530,2
DA:531,1
DA:535,0
DA:537,0
DA:542,2
DA:543,4
DA:544,8
DA:545,4
DA:546,2
DA:547,3
DA:548,1
LF:197
LH:78
end_of_record
TN:
SF:/teaclave/mesatee_core/src/ipc/channel/app_dep.rs
FN:55,_ZN12mesatee_core3ipc7channel7app_dep12ECallChannel3new17hee58a41a8c6048f3E
FN:62,_ZN12mesatee_core3ipc7channel7app_dep12ECallChannel20ecall_ipc_app_to_tee17h621f18a9a83fe4d1E
FNDA:2,_ZN12mesatee_core3ipc7channel7app_dep12ECallChannel20ecall_ipc_app_to_tee17h621f18a9a83fe4d1E
FNDA:2,_ZN12mesatee_core3ipc7channel7app_dep12ECallChannel3new17hee58a41a8c6048f3E
FNF:2
FNH:2
DA:55,2
DA:56,2
DA:60,2
DA:62,2
DA:63,14
DA:65,2
DA:66,2
DA:68,2
DA:69,2
DA:70,2
DA:71,2
DA:72,2
DA:73,2
DA:75,2
DA:78,2
DA:79,2
DA:81,2
DA:91,4
DA:92,0
DA:93,0
DA:101,8
DA:102,0
DA:103,0
DA:104,0
DA:108,0
DA:109,0
DA:110,0
DA:111,0
DA:112,0
DA:118,4
DA:119,0
DA:120,0
DA:121,0
DA:125,2
DA:127,14
DA:129,2
DA:130,0
DA:132,2
DA:133,4
LF:39
LH:25
end_of_record
TN:
SF:/teaclave/mesatee_core/src/ipc/protos/ecall.rs
FN:32,_ZN239_$LT$mesatee_core..ipc..protos..ecall.._IMPL_DESERIALIZE_FOR_InitEnclaveInput..$LT$impl$u20$serde..de..Deserialize$u20$for$u20$mesatee_core..ipc..protos..ecall..InitEnclaveInput$GT$..deserialize..__Visitor$u20$as$u20$serde..de..Visitor$GT$9expecting17hbb6dbb8b9d66f3acE
FN:32,_ZN87_$LT$mesatee_core..ipc..protos..ecall..InitEnclaveInput$u20$as$u20$core..fmt..Debug$GT$3fmt17ha0fb297261739b2aE
FN:35,_ZN241_$LT$mesatee_core..ipc..protos..ecall.._IMPL_DESERIALIZE_FOR_InitEnclaveOutput..$LT$impl$u20$serde..de..Deserialize$u20$for$u20$mesatee_core..ipc..protos..ecall..InitEnclaveOutput$GT$..deserialize..__Visitor$u20$as$u20$serde..de..Visitor$GT$9expecting17h35f4cddc988bac3bE
FN:35,_ZN88_$LT$mesatee_core..ipc..protos..ecall..InitEnclaveOutput$u20$as$u20$core..fmt..Debug$GT$3fmt17h263f161feb05ee10E
FN:38,_ZN247_$LT$mesatee_core..ipc..protos..ecall.._IMPL_DESERIALIZE_FOR_FinalizeEnclaveInput..$LT$impl$u20$serde..de..Deserialize$u20$for$u20$mesatee_core..ipc..protos..ecall..FinalizeEnclaveInput$GT$..deserialize..__Visitor$u20$as$u20$serde..de..Visitor$GT$9expecting17hfc3dfd1b56d3252fE
FN:38,_ZN91_$LT$mesatee_core..ipc..protos..ecall..FinalizeEnclaveInput$u20$as$u20$core..fmt..Debug$GT$3fmt17h44a02f09a0f555fdE
FN:41,_ZN92_$LT$mesatee_core..ipc..protos..ecall..FinalizeEnclaveOutput$u20$as$u20$core..fmt..Debug$GT$3fmt17h643a5f303c974b5bE
FN:41,_ZN249_$LT$mesatee_core..ipc..protos..ecall.._IMPL_DESERIALIZE_FOR_FinalizeEnclaveOutput..$LT$impl$u20$serde..de..Deserialize$u20$for$u20$mesatee_core..ipc..protos..ecall..FinalizeEnclaveOutput$GT$..deserialize..__Visitor$u20$as$u20$serde..de..Visitor$GT$9expecting17h597667a0415a8d2cE
FN:44,_ZN93_$LT$mesatee_core..ipc..protos..ecall..RunFunctionalTestInput$u20$as$u20$core..fmt..Debug$GT$3fmt17hec874b02cb02e986E
FN:44,_ZN251_$LT$mesatee_core..ipc..protos..ecall.._IMPL_DESERIALIZE_FOR_RunFunctionalTestInput..$LT$impl$u20$serde..de..Deserialize$u20$for$u20$mesatee_core..ipc..protos..ecall..RunFunctionalTestInput$GT$..deserialize..__Visitor$u20$as$u20$serde..de..Visitor$GT$9expecting17hbab8e941b4101271E
FN:47,_ZN94_$LT$mesatee_core..ipc..protos..ecall..RunFunctionalTestOutput$u20$as$u20$core..fmt..Debug$GT$3fmt17h5f298ba49e3cd3d7E
FN:47,_ZN253_$LT$mesatee_core..ipc..protos..ecall.._IMPL_DESERIALIZE_FOR_RunFunctionalTestOutput..$LT$impl$u20$serde..de..Deserialize$u20$for$u20$mesatee_core..ipc..protos..ecall..RunFunctionalTestOutput$GT$..deserialize..__Visitor$u20$as$u20$serde..de..Visitor$GT$9expecting17h2c6cd8e46749463fE
FN:47,_ZN258_$LT$mesatee_core..ipc..protos..ecall.._IMPL_DESERIALIZE_FOR_RunFunctionalTestOutput..$LT$impl$u20$serde..de..Deserialize$u20$for$u20$mesatee_core..ipc..protos..ecall..RunFunctionalTestOutput$GT$..deserialize..__FieldVisitor$u20$as$u20$serde..de..Visitor$GT$9expecting17h75782a35261b4fbcE
FN:52,_ZN247_$LT$mesatee_core..ipc..protos..ecall.._IMPL_DESERIALIZE_FOR_ServeConnectionInput..$LT$impl$u20$serde..de..Deserialize$u20$for$u20$mesatee_core..ipc..protos..ecall..ServeConnectionInput$GT$..deserialize..__Visitor$u20$as$u20$serde..de..Visitor$GT$9expecting17h05f149a8b1579142E
FN:52,_ZN91_$LT$mesatee_core..ipc..protos..ecall..ServeConnectionInput$u20$as$u20$core..fmt..Debug$GT$3fmt17h2776c75986370a68E
FN:52,_ZN252_$LT$mesatee_core..ipc..protos..ecall.._IMPL_DESERIALIZE_FOR_ServeConnectionInput..$LT$impl$u20$serde..de..Deserialize$u20$for$u20$mesatee_core..ipc..protos..ecall..ServeConnectionInput$GT$..deserialize..__FieldVisitor$u20$as$u20$serde..de..Visitor$GT$9expecting17h6eeb18c51fd44256E
FN:58,_ZN249_$LT$mesatee_core..ipc..protos..ecall.._IMPL_DESERIALIZE_FOR_ServeConnectionOutput..$LT$impl$u20$serde..de..Deserialize$u20$for$u20$mesatee_core..ipc..protos..ecall..ServeConnectionOutput$GT$..deserialize..__Visitor$u20$as$u20$serde..de..Visitor$GT$9expecting17h6b7f3d7107c22becE
FN:58,_ZN92_$LT$mesatee_core..ipc..protos..ecall..ServeConnectionOutput$u20$as$u20$core..fmt..Debug$GT$3fmt17h24ec759c3d635203E
FN:62,_ZN12mesatee_core3ipc6protos5ecall23RunFunctionalTestOutput3new17hc72466667c628f67E
FN:68,_ZN12mesatee_core3ipc6protos5ecall20ServeConnectionInput3new17h3f489f63c5f111ceE
FN:74,_ZN87_$LT$mesatee_core..ipc..protos..ecall..RunUnitTestInput$u20$as$u20$core..fmt..Debug$GT$3fmt17h03dd8e326ec6d27aE
FN:74,_ZN239_$LT$mesatee_core..ipc..protos..ecall.._IMPL_DESERIALIZE_FOR_RunUnitTestInput..$LT$impl$u20$serde..de..Deserialize$u20$for$u20$mesatee_core..ipc..protos..ecall..RunUnitTestInput$GT$..deserialize..__Visitor$u20$as$u20$serde..de..Visitor$GT$9expecting17h741a947e04469a17E
FN:77,_ZN246_$LT$mesatee_core..ipc..protos..ecall.._IMPL_DESERIALIZE_FOR_RunUnitTestOutput..$LT$impl$u20$serde..de..Deserialize$u20$for$u20$mesatee_core..ipc..protos..ecall..RunUnitTestOutput$GT$..deserialize..__FieldVisitor$u20$as$u20$serde..de..Visitor$GT$9expecting17ha1d9c71188bff44bE
FN:77,_ZN88_$LT$mesatee_core..ipc..protos..ecall..RunUnitTestOutput$u20$as$u20$core..fmt..Debug$GT$3fmt17hec664ec90d4c1673E
FN:77,_ZN241_$LT$mesatee_core..ipc..protos..ecall.._IMPL_DESERIALIZE_FOR_RunUnitTestOutput..$LT$impl$u20$serde..de..Deserialize$u20$for$u20$mesatee_core..ipc..protos..ecall..RunUnitTestOutput$GT$..deserialize..__Visitor$u20$as$u20$serde..de..Visitor$GT$9expecting17he796f457dd7c3e02E
FN:83,_ZN12mesatee_core3ipc6protos5ecall17RunUnitTestOutput3new17h123ebde5134e7258E
FNDA:0,_ZN251_$LT$mesatee_core..ipc..protos..ecall.._IMPL_DESERIALIZE_FOR_RunFunctionalTestInput..$LT$impl$u20$serde..de..Deserialize$u20$for$u20$mesatee_core..ipc..protos..ecall..RunFunctionalTestInput$GT$..deserialize..__Visitor$u20$as$u20$serde..de..Visitor$GT$9expecting17hbab8e941b4101271E
FNDA:0,_ZN258_$LT$mesatee_core..ipc..protos..ecall.._IMPL_DESERIALIZE_FOR_RunFunctionalTestOutput..$LT$impl$u20$serde..de..Deserialize$u20$for$u20$mesatee_core..ipc..protos..ecall..RunFunctionalTestOutput$GT$..deserialize..__FieldVisitor$u20$as$u20$serde..de..Visitor$GT$9expecting17h75782a35261b4fbcE
FNDA:0,_ZN91_$LT$mesatee_core..ipc..protos..ecall..FinalizeEnclaveInput$u20$as$u20$core..fmt..Debug$GT$3fmt17h44a02f09a0f555fdE
FNDA:0,_ZN249_$LT$mesatee_core..ipc..protos..ecall.._IMPL_DESERIALIZE_FOR_FinalizeEnclaveOutput..$LT$impl$u20$serde..de..Deserialize$u20$for$u20$mesatee_core..ipc..protos..ecall..FinalizeEnclaveOutput$GT$..deserialize..__Visitor$u20$as$u20$serde..de..Visitor$GT$9expecting17h597667a0415a8d2cE
FNDA:0,_ZN241_$LT$mesatee_core..ipc..protos..ecall.._IMPL_DESERIALIZE_FOR_RunUnitTestOutput..$LT$impl$u20$serde..de..Deserialize$u20$for$u20$mesatee_core..ipc..protos..ecall..RunUnitTestOutput$GT$..deserialize..__Visitor$u20$as$u20$serde..de..Visitor$GT$9expecting17he796f457dd7c3e02E
FNDA:0,_ZN87_$LT$mesatee_core..ipc..protos..ecall..InitEnclaveInput$u20$as$u20$core..fmt..Debug$GT$3fmt17ha0fb297261739b2aE
FNDA:0,_ZN92_$LT$mesatee_core..ipc..protos..ecall..ServeConnectionOutput$u20$as$u20$core..fmt..Debug$GT$3fmt17h24ec759c3d635203E
FNDA:0,_ZN88_$LT$mesatee_core..ipc..protos..ecall..RunUnitTestOutput$u20$as$u20$core..fmt..Debug$GT$3fmt17hec664ec90d4c1673E
FNDA:0,_ZN253_$LT$mesatee_core..ipc..protos..ecall.._IMPL_DESERIALIZE_FOR_RunFunctionalTestOutput..$LT$impl$u20$serde..de..Deserialize$u20$for$u20$mesatee_core..ipc..protos..ecall..RunFunctionalTestOutput$GT$..deserialize..__Visitor$u20$as$u20$serde..de..Visitor$GT$9expecting17h2c6cd8e46749463fE
FNDA:0,_ZN88_$LT$mesatee_core..ipc..protos..ecall..InitEnclaveOutput$u20$as$u20$core..fmt..Debug$GT$3fmt17h263f161feb05ee10E
FNDA:0,_ZN249_$LT$mesatee_core..ipc..protos..ecall.._IMPL_DESERIALIZE_FOR_ServeConnectionOutput..$LT$impl$u20$serde..de..Deserialize$u20$for$u20$mesatee_core..ipc..protos..ecall..ServeConnectionOutput$GT$..deserialize..__Visitor$u20$as$u20$serde..de..Visitor$GT$9expecting17h6b7f3d7107c22becE
FNDA:0,_ZN252_$LT$mesatee_core..ipc..protos..ecall.._IMPL_DESERIALIZE_FOR_ServeConnectionInput..$LT$impl$u20$serde..de..Deserialize$u20$for$u20$mesatee_core..ipc..protos..ecall..ServeConnectionInput$GT$..deserialize..__FieldVisitor$u20$as$u20$serde..de..Visitor$GT$9expecting17h6eeb18c51fd44256E
FNDA:0,_ZN239_$LT$mesatee_core..ipc..protos..ecall.._IMPL_DESERIALIZE_FOR_InitEnclaveInput..$LT$impl$u20$serde..de..Deserialize$u20$for$u20$mesatee_core..ipc..protos..ecall..InitEnclaveInput$GT$..deserialize..__Visitor$u20$as$u20$serde..de..Visitor$GT$9expecting17hbb6dbb8b9d66f3acE
FNDA:0,_ZN91_$LT$mesatee_core..ipc..protos..ecall..ServeConnectionInput$u20$as$u20$core..fmt..Debug$GT$3fmt17h2776c75986370a68E
FNDA:0,_ZN247_$LT$mesatee_core..ipc..protos..ecall.._IMPL_DESERIALIZE_FOR_FinalizeEnclaveInput..$LT$impl$u20$serde..de..Deserialize$u20$for$u20$mesatee_core..ipc..protos..ecall..FinalizeEnclaveInput$GT$..deserialize..__Visitor$u20$as$u20$serde..de..Visitor$GT$9expecting17hfc3dfd1b56d3252fE
FNDA:0,_ZN241_$LT$mesatee_core..ipc..protos..ecall.._IMPL_DESERIALIZE_FOR_InitEnclaveOutput..$LT$impl$u20$serde..de..Deserialize$u20$for$u20$mesatee_core..ipc..protos..ecall..InitEnclaveOutput$GT$..deserialize..__Visitor$u20$as$u20$serde..de..Visitor$GT$9expecting17h35f4cddc988bac3bE
FNDA:0,_ZN93_$LT$mesatee_core..ipc..protos..ecall..RunFunctionalTestInput$u20$as$u20$core..fmt..Debug$GT$3fmt17hec874b02cb02e986E
FNDA:0,_ZN87_$LT$mesatee_core..ipc..protos..ecall..RunUnitTestInput$u20$as$u20$core..fmt..Debug$GT$3fmt17h03dd8e326ec6d27aE
FNDA:0,_ZN246_$LT$mesatee_core..ipc..protos..ecall.._IMPL_DESERIALIZE_FOR_RunUnitTestOutput..$LT$impl$u20$serde..de..Deserialize$u20$for$u20$mesatee_core..ipc..protos..ecall..RunUnitTestOutput$GT$..deserialize..__FieldVisitor$u20$as$u20$serde..de..Visitor$GT$9expecting17ha1d9c71188bff44bE
FNDA:0,_ZN94_$LT$mesatee_core..ipc..protos..ecall..RunFunctionalTestOutput$u20$as$u20$core..fmt..Debug$GT$3fmt17h5f298ba49e3cd3d7E
FNDA:0,_ZN239_$LT$mesatee_core..ipc..protos..ecall.._IMPL_DESERIALIZE_FOR_RunUnitTestInput..$LT$impl$u20$serde..de..Deserialize$u20$for$u20$mesatee_core..ipc..protos..ecall..RunUnitTestInput$GT$..deserialize..__Visitor$u20$as$u20$serde..de..Visitor$GT$9expecting17h741a947e04469a17E
FNDA:0,_ZN12mesatee_core3ipc6protos5ecall20ServeConnectionInput3new17h3f489f63c5f111ceE
FNDA:0,_ZN92_$LT$mesatee_core..ipc..protos..ecall..FinalizeEnclaveOutput$u20$as$u20$core..fmt..Debug$GT$3fmt17h643a5f303c974b5bE
FNDA:0,_ZN12mesatee_core3ipc6protos5ecall17RunUnitTestOutput3new17h123ebde5134e7258E
FNDA:0,_ZN247_$LT$mesatee_core..ipc..protos..ecall.._IMPL_DESERIALIZE_FOR_ServeConnectionInput..$LT$impl$u20$serde..de..Deserialize$u20$for$u20$mesatee_core..ipc..protos..ecall..ServeConnectionInput$GT$..deserialize..__Visitor$u20$as$u20$serde..de..Visitor$GT$9expecting17h05f149a8b1579142E
FNDA:0,_ZN12mesatee_core3ipc6protos5ecall23RunFunctionalTestOutput3new17hc72466667c628f67E
FNF:26
FNH:0
DA:32,0
DA:35,0
DA:38,0
DA:41,0
DA:44,0
DA:47,0
DA:49,0
DA:52,0
DA:54,0
DA:55,0
DA:58,0
DA:62,0
DA:63,0
DA:64,0
DA:68,0
DA:69,0
DA:70,0
DA:74,0
DA:77,0
DA:79,0
DA:83,0
DA:84,0
DA:85,0
LF:23
LH:0
end_of_record
TN:
SF:/teaclave/mesatee_core/src/lib.rs
FN:82,_ZN12mesatee_core5tests10test_error17h2c29e8bd7233d2c3E
FNDA:1,_ZN12mesatee_core5tests10test_error17h2c29e8bd7233d2c3E
FNF:1
FNH:1
DA:82,1
DA:83,2
DA:84,1
DA:85,1
LF:4
LH:4
end_of_record
TN:
SF:/teaclave/mesatee_core/src/rpc/sendrecv.rs
FN:29,_ZN12mesatee_core3rpc8sendrecv12get_send_vec17h2efb83cbbd114b0cE
FNDA:0,_ZN12mesatee_core3rpc8sendrecv12get_send_vec17h2efb83cbbd114b0cE
FNF:1
FNH:0
DA:29,0
DA:30,0
DA:31,0
DA:32,0
DA:33,0
DA:35,0
DA:36,0
LF:7
LH:0
end_of_record
TN:
SF:/teaclave/mesatee_core/src/rpc/sgx/client.rs
FN:49,_ZN92_$LT$mesatee_core..rpc..sgx..client..ClientConfigCache$u20$as$u20$core..default..Default$GT$7default17h5d5b27f5971af548E
FN:96,_ZN12mesatee_core3rpc3sgx6client14get_tls_config17hb9b161295104df5cE
FNDA:0,_ZN12mesatee_core3rpc3sgx6client14get_tls_config17hb9b161295104df5cE
FNDA:0,_ZN92_$LT$mesatee_core..rpc..sgx..client..ClientConfigCache$u20$as$u20$core..default..Default$GT$7default17h5d5b27f5971af548E
FNF:2
FNH:0
DA:49,0
DA:51,0
DA:96,0
DA:97,0
DA:98,0
DA:99,0
DA:101,0
DA:103,0
DA:105,0
DA:107,0
DA:108,0
DA:109,0
DA:111,0
DA:113,0
DA:114,0
DA:116,0
DA:117,0
DA:119,0
DA:120,0
LF:19
LH:0
end_of_record
TN:
SF:/teaclave/mesatee_core/src/rpc/unix/mod.rs
FN:74,_ZN12mesatee_core3rpc4unix10PipeConfig3new17h2c20938d7577c134E
FN:78,_ZN12mesatee_core3rpc4unix10PipeConfig3get17hb706d7f259ff914fE
FNDA:0,_ZN12mesatee_core3rpc4unix10PipeConfig3get17hb706d7f259ff914fE
FNDA:0,_ZN12mesatee_core3rpc4unix10PipeConfig3new17h2c20938d7577c134E
FNF:2
FNH:0
DA:74,0
DA:75,0
DA:76,0
DA:78,0
DA:79,0
DA:80,0
LF:6
LH:0
end_of_record
TN:
SF:/teaclave/teaclave_config/src/lib.rs
FN:32,_ZN83_$LT$teaclave_config..runtime_config..RuntimeConfig$u20$as$u20$core..fmt..Debug$GT$3fmt17hbc6cf7264774c026E
FN:32,_ZN231_$LT$teaclave_config..runtime_config.._IMPL_DESERIALIZE_FOR_RuntimeConfig..$LT$impl$u20$serde..de..Deserialize$u20$for$u20$teaclave_config..runtime_config..RuntimeConfig$GT$..deserialize..__Visitor$u20$as$u20$serde..de..Visitor$GT$9expecting17h1a47180d705e1df7E
FN:32,_ZN236_$LT$teaclave_config..runtime_config.._IMPL_DESERIALIZE_FOR_RuntimeConfig..$LT$impl$u20$serde..de..Deserialize$u20$for$u20$teaclave_config..runtime_config..RuntimeConfig$GT$..deserialize..__FieldVisitor$u20$as$u20$serde..de..Visitor$GT$9expecting17h0f2649f70cd532d6E
FN:39,_ZN227_$LT$teaclave_config..runtime_config.._IMPL_DESERIALIZE_FOR_AuditConfig..$LT$impl$u20$serde..de..Deserialize$u20$for$u20$teaclave_config..runtime_config..AuditConfig$GT$..deserialize..__Visitor$u20$as$u20$serde..de..Visitor$GT$9expecting17hca7f5bf44e2cb0e5E
FN:39,_ZN81_$LT$teaclave_config..runtime_config..AuditConfig$u20$as$u20$core..fmt..Debug$GT$3fmt17hf4d727c37c56ab85E
FN:39,_ZN232_$LT$teaclave_config..runtime_config.._IMPL_DESERIALIZE_FOR_AuditConfig..$LT$impl$u20$serde..de..Deserialize$u20$for$u20$teaclave_config..runtime_config..AuditConfig$GT$..deserialize..__FieldVisitor$u20$as$u20$serde..de..Visitor$GT$9expecting17h3cc70a47deef79a9E
FN:51,_ZN82_$LT$teaclave_config..runtime_config..ConfigSource$u20$as$u20$core..fmt..Debug$GT$3fmt17h9c35f01c7d019f61E
FN:51,_ZN234_$LT$teaclave_config..runtime_config.._IMPL_DESERIALIZE_FOR_ConfigSource..$LT$impl$u20$serde..de..Deserialize$u20$for$u20$teaclave_config..runtime_config..ConfigSource$GT$..deserialize..__FieldVisitor$u20$as$u20$serde..de..Visitor$GT$9expecting17h16c0aa37097261f5E
FN:51,_ZN229_$LT$teaclave_config..runtime_config.._IMPL_DESERIALIZE_FOR_ConfigSource..$LT$impl$u20$serde..de..Deserialize$u20$for$u20$teaclave_config..runtime_config..ConfigSource$GT$..deserialize..__Visitor$u20$as$u20$serde..de..Visitor$GT$9expecting17h2ca8962608e1f5d3E
FN:57,_ZN79_$LT$teaclave_config..runtime_config..EnvConfig$u20$as$u20$core..fmt..Debug$GT$3fmt17h876ccc523f1e9bfaE
FN:130,_ZN15teaclave_config5tests19test_runtime_config17hf620a66e8621ea44E
FN:133,_ZN15teaclave_config5tests17test_build_config17h8ff3b41b011c641cE
FNDA:0,_ZN79_$LT$teaclave_config..runtime_config..EnvConfig$u20$as$u20$core..fmt..Debug$GT$3fmt17h876ccc523f1e9bfaE
FNDA:0,_ZN227_$LT$teaclave_config..runtime_config.._IMPL_DESERIALIZE_FOR_AuditConfig..$LT$impl$u20$serde..de..Deserialize$u20$for$u20$teaclave_config..runtime_config..AuditConfig$GT$..deserialize..__Visitor$u20$as$u20$serde..de..Visitor$GT$9expecting17hca7f5bf44e2cb0e5E
FNDA:1,_ZN15teaclave_config5tests17test_build_config17h8ff3b41b011c641cE
FNDA:0,_ZN82_$LT$teaclave_config..runtime_config..ConfigSource$u20$as$u20$core..fmt..Debug$GT$3fmt17h9c35f01c7d019f61E
FNDA:1,_ZN15teaclave_config5tests19test_runtime_config17hf620a66e8621ea44E
FNDA:0,_ZN83_$LT$teaclave_config..runtime_config..RuntimeConfig$u20$as$u20$core..fmt..Debug$GT$3fmt17hbc6cf7264774c026E
FNDA:0,_ZN234_$LT$teaclave_config..runtime_config.._IMPL_DESERIALIZE_FOR_ConfigSource..$LT$impl$u20$serde..de..Deserialize$u20$for$u20$teaclave_config..runtime_config..ConfigSource$GT$..deserialize..__FieldVisitor$u20$as$u20$serde..de..Visitor$GT$9expecting17h16c0aa37097261f5E
FNDA:0,_ZN81_$LT$teaclave_config..runtime_config..AuditConfig$u20$as$u20$core..fmt..Debug$GT$3fmt17hf4d727c37c56ab85E
FNDA:0,_ZN232_$LT$teaclave_config..runtime_config.._IMPL_DESERIALIZE_FOR_AuditConfig..$LT$impl$u20$serde..de..Deserialize$u20$for$u20$teaclave_config..runtime_config..AuditConfig$GT$..deserialize..__FieldVisitor$u20$as$u20$serde..de..Visitor$GT$9expecting17h3cc70a47deef79a9E
FNDA:0,_ZN231_$LT$teaclave_config..runtime_config.._IMPL_DESERIALIZE_FOR_RuntimeConfig..$LT$impl$u20$serde..de..Deserialize$u20$for$u20$teaclave_config..runtime_config..RuntimeConfig$GT$..deserialize..__Visitor$u20$as$u20$serde..de..Visitor$GT$9expecting17h1a47180d705e1df7E
FNDA:0,_ZN236_$LT$teaclave_config..runtime_config.._IMPL_DESERIALIZE_FOR_RuntimeConfig..$LT$impl$u20$serde..de..Deserialize$u20$for$u20$teaclave_config..runtime_config..RuntimeConfig$GT$..deserialize..__FieldVisitor$u20$as$u20$serde..de..Visitor$GT$9expecting17h0f2649f70cd532d6E
FNDA:0,_ZN229_$LT$teaclave_config..runtime_config.._IMPL_DESERIALIZE_FOR_ConfigSource..$LT$impl$u20$serde..de..Deserialize$u20$for$u20$teaclave_config..runtime_config..ConfigSource$GT$..deserialize..__Visitor$u20$as$u20$serde..de..Visitor$GT$9expecting17h2ca8962608e1f5d3E
FNF:12
FNH:2
DA:32,0
DA:34,0
DA:36,0
DA:39,0
DA:42,0
DA:44,0
DA:46,0
DA:48,0
DA:51,0
DA:54,0
DA:57,0
DA:59,0
DA:60,0
DA:130,1
DA:131,2
DA:133,1
DA:134,4
DA:135,1
LF:18
LH:5
end_of_record
